target datalayout = "e-m:e-p270:32:32-p271:32:32-p272:64:64-i64:64-i128:128-f80:128-n8:16:32:64-S128"
target triple = "x86_64-pc-linux-gnu"

%struct.BackendGlobalData = type <{ ptr, ptr, i8, i8, i8, i8, i8, i8, i8, i8, i8, [3 x i8], i32, ptr, ptr, ptr, ptr, ptr, ptr, ptr, ptr, ptr, ptr, ptr, ptr, ptr, i32, %struct.jvmtiCapabilities, i8, [3 x i8], %struct.jvmtiEventCallbacks, ptr, ptr, ptr, ptr, ptr, ptr, ptr, i32, [4 x i8], ptr, i64, i32, [4 x i8], ptr, i32, i32, i8, i8, [6 x i8] }>
%struct.jvmtiCapabilities = type { i64, i64 }
%struct.jvmtiEventCallbacks = type { ptr, ptr, ptr, ptr, ptr, ptr, ptr, ptr, ptr, ptr, ptr, ptr, ptr, ptr, ptr, ptr, ptr, ptr, ptr, ptr, ptr, ptr, ptr, ptr, ptr, ptr, ptr, ptr, ptr, ptr, ptr, ptr, ptr, ptr, ptr, ptr, ptr, ptr, ptr }
%struct.jvmtiInterface_1_ = type { ptr, ptr, ptr, ptr, ptr, ptr, ptr, ptr, ptr, ptr, ptr, ptr, ptr, ptr, ptr, ptr, ptr, ptr, ptr, ptr, ptr, ptr, ptr, ptr, ptr, ptr, ptr, ptr, ptr, ptr, ptr, ptr, ptr, ptr, ptr, ptr, ptr, ptr, ptr, ptr, ptr, ptr, ptr, ptr, ptr, ptr, ptr, ptr, ptr, ptr, ptr, ptr, ptr, ptr, ptr, ptr, ptr, ptr, ptr, ptr, ptr, ptr, ptr, ptr, ptr, ptr, ptr, ptr, ptr, ptr, ptr, ptr, ptr, ptr, ptr, ptr, ptr, ptr, ptr, ptr, ptr, ptr, ptr, ptr, ptr, ptr, ptr, ptr, ptr, ptr, ptr, ptr, ptr, ptr, ptr, ptr, ptr, ptr, ptr, ptr, ptr, ptr, ptr, ptr, ptr, ptr, ptr, ptr, ptr, ptr, ptr, ptr, ptr, ptr, ptr, ptr, ptr, ptr, ptr, ptr, ptr, ptr, ptr, ptr, ptr, ptr, ptr, ptr, ptr, ptr, ptr, ptr, ptr, ptr, ptr, ptr, ptr, ptr, ptr, ptr, ptr, ptr, ptr, ptr, ptr, ptr, ptr, ptr, ptr, ptr, ptr, ptr, ptr, ptr, ptr, ptr }

@gdata = hidden global ptr null, align 8
@stderr = external global ptr, align 8
@.str = private unnamed_addr constant [17 x i8] c"JDWP exit error \00", align 1
@.str.1 = private unnamed_addr constant [2 x i8] c"\0A\00", align 1
@.str.2 = private unnamed_addr constant [19 x i8] c"%s(%d): %s [%s:%d]\00", align 1
@.str.4 = private unnamed_addr constant [47 x i8] c"src/jdk.jdwp.agent/share/native/libjdwp/util.c\00", align 1
@.str.9 = private unnamed_addr constant [5 x i8] c"%s()\00", align 1
@.str.45 = private unnamed_addr constant [6 x i8] c"JVMTI\00", align 1
@.str.103 = private unnamed_addr constant [15 x i8] c"IsMethodNative\00", align 1
@.str.104 = private unnamed_addr constant [35 x i8] c"on checking for a native interface\00", align 1

; Function Attrs: nounwind uwtable
define hidden zeroext i8 @isMethodNative(ptr noundef %0) #0 {
  %2 = alloca ptr, align 8
  %3 = alloca i8, align 1
  %4 = alloca i32, align 4
  store ptr %0, ptr %2, align 8
  store i8 0, ptr %3, align 1
  %5 = load ptr, ptr @gdata, align 8
  %6 = getelementptr inbounds %struct.BackendGlobalData, ptr %5, i32 0, i32 38
  %7 = load i32, ptr %6, align 8
  %8 = and i32 %7, 4
  %9 = icmp ne i32 %8, 0
  br i1 %9, label %10, label %11

10:                                               ; preds = %1
  call void @log_message_begin(ptr noundef @.str.45, ptr noundef @.str.4, i32 noundef 1297)
  call void (ptr, ...) @log_message_end(ptr noundef @.str.9, ptr noundef @.str.103)
  br label %12

11:                                               ; preds = %1
  br label %12

12:                                               ; preds = %11, %10
  %13 = load ptr, ptr @gdata, align 8
  %14 = getelementptr inbounds %struct.BackendGlobalData, ptr %13, i32 0, i32 0
  %15 = load ptr, ptr %14, align 8
  %16 = load ptr, ptr %15, align 8
  %17 = getelementptr inbounds %struct.jvmtiInterface_1_, ptr %16, i32 0, i32 75
  %18 = load ptr, ptr %17, align 8
  %19 = load ptr, ptr @gdata, align 8
  %20 = getelementptr inbounds %struct.BackendGlobalData, ptr %19, i32 0, i32 0
  %21 = load ptr, ptr %20, align 8
  %22 = load ptr, ptr %2, align 8
  %23 = call i32 %18(ptr noundef %21, ptr noundef %22, ptr noundef %3)
  store i32 %23, ptr %4, align 4
  %24 = load i32, ptr %4, align 4
  %25 = icmp ne i32 %24, 0
  br i1 %25, label %26, label %32

26:                                               ; preds = %12
  %27 = load ptr, ptr @stderr, align 8
  %28 = load i32, ptr %4, align 4
  %29 = call ptr @jvmtiErrorText(i32 noundef %28)
  %30 = load i32, ptr %4, align 4
  call void (ptr, ptr, ptr, ptr, ...) @print_message(ptr noundef %27, ptr noundef @.str, ptr noundef @.str.1, ptr noundef @.str.2, ptr noundef %29, i32 noundef %30, ptr noundef @.str.104, ptr noundef @.str.4, i32 noundef 1300)
  %31 = load i32, ptr %4, align 4
  call void @debugInit_exit(i32 noundef %31, ptr noundef @.str.104)
  br label %32

32:                                               ; preds = %26, %12
  %33 = load i8, ptr %3, align 1
  ret i8 %33
}