; Function Attrs: nounwind uwtable
define hidden zeroext i8 @isMethodNative(ptr noundef %0) local_unnamed_addr #0 {
  %2 = alloca i8, align 1
  store i8 0, ptr %2, align 1
  %3 = load ptr, ptr @gdata, align 8
  %4 = getelementptr inbounds i8, ptr %3, i64 528
  %5 = load i32, ptr %4, align 8
  %6 = and i32 %5, 4
  %.not = icmp eq i32 %6, 0
  br i1 %.not, label %8, label %7

7:                                                ; preds = %1
  tail call void @log_message_begin(ptr noundef nonnull @.str.45, ptr noundef nonnull @.str.4, i32 noundef 1297) #14
  tail call void (ptr, ...) @log_message_end(ptr noundef nonnull @.str.9, ptr noundef nonnull @.str.103) #14
  %.pre = load ptr, ptr @gdata, align 8
  br label %8

8:                                                ; preds = %1, %7
  %9 = phi ptr [ %3, %1 ], [ %.pre, %7 ]
  %10 = load ptr, ptr %9, align 8
  %11 = load ptr, ptr %10, align 8
  %12 = getelementptr inbounds i8, ptr %11, i64 600
  %13 = load ptr, ptr %12, align 8
  %14 = call i32 %13(ptr noundef nonnull %10, ptr noundef %0, ptr noundef nonnull %2) #14
  %.not4 = icmp eq i32 %14, 0
  br i1 %.not4, label %18, label %15

15:                                               ; preds = %8
  %16 = load ptr, ptr @stderr, align 8
  %17 = call ptr @jvmtiErrorText(i32 noundef %14) #14
  call void (ptr, ptr, ptr, ptr, ...) @print_message(ptr noundef %16, ptr noundef nonnull @.str, ptr noundef nonnull @.str.1, ptr noundef nonnull @.str.2, ptr noundef %17, i32 noundef %14, ptr noundef nonnull @.str.104, ptr noundef nonnull @.str.4, i32 noundef 1300) #14
  call void @debugInit_exit(i32 noundef %14, ptr noundef nonnull @.str.104) #14
  br label %18

18:                                               ; preds = %15, %8
  %19 = load i8, ptr %2, align 1
  ret i8 %19
}